target datalayout = "e-m:e-p270:32:32-p271:32:32-p272:64:64-i64:64-i128:128-f80:128-n8:16:32:64-S128"
target triple = "x86_64-pc-linux-gnu"

; Function Attrs: inlinehint mustprogress nounwind uwtable
define internal noundef signext i8 @_ZL9U_FAILURE10UErrorCode(i32 noundef %0) #2 {
  %2 = alloca i32, align 4
  store i32 %0, ptr %2, align 4, !tbaa !15
  %3 = load i32, ptr %2, align 4, !tbaa !15
  %4 = icmp sgt i32 %3, 0
  %5 = zext i1 %4 to i8
  ret i8 %5
}

; Function Attrs: mustprogress uwtable
define noundef i32 @_ZNK6icu_7713MlBreakEngine13initIndexListERKNS_13UnicodeStringEPiR10UErrorCode(ptr noundef nonnull align 8 dereferenceable(1556) %0, ptr noundef nonnull align 8 dereferenceable(64) %1, ptr noundef %2, ptr noundef nonnull align 4 dereferenceable(4) %3) #1 align 2 {
  %5 = alloca i32, align 4
  %6 = alloca ptr, align 8
  %7 = alloca ptr, align 8
  %8 = alloca ptr, align 8
  %9 = alloca ptr, align 8
  %10 = alloca i32, align 4
  %11 = alloca i32, align 4
  store ptr %0, ptr %6, align 8, !tbaa !23
  store ptr %1, ptr %7, align 8, !tbaa !54
  store ptr %2, ptr %8, align 8, !tbaa !20
  store ptr %3, ptr %9, align 8, !tbaa !22
  %12 = load ptr, ptr %9, align 8, !tbaa !22
  %13 = load i32, ptr %12, align 4, !tbaa !15
  %14 = call noundef signext i8 @_ZL9U_FAILURE10UErrorCode(i32 noundef %13)
  %15 = icmp ne i8 %14, 0
  br i1 %15, label %16, label %17

16:                                               ; preds = %4
  store i32 0, ptr %5, align 4
  br label %78

17:                                               ; preds = %4
  call void @llvm.lifetime.start.p0(i64 4, ptr %10) #11
  store i32 0, ptr %10, align 4, !tbaa !14
  call void @llvm.lifetime.start.p0(i64 4, ptr %11) #11
  %18 = load ptr, ptr %7, align 8, !tbaa !54
  %19 = call noundef i32 @_ZNK6icu_7713UnicodeString11countChar32Eii(ptr noundef nonnull align 8 dereferenceable(64) %18, i32 noundef 0, i32 noundef 2147483647)
  store i32 %19, ptr %11, align 4, !tbaa !14
  %20 = load ptr, ptr %8, align 8, !tbaa !20
  %21 = load i32, ptr %11, align 4, !tbaa !14
  %22 = add nsw i32 %21, 4
  %23 = sext i32 %22 to i64
  %24 = mul i64 %23, 4
  call void @llvm.memset.p0.i64(ptr align 4 %20, i8 -1, i64 %24, i1 false)
  %25 = load i32, ptr %11, align 4, !tbaa !14
  %26 = icmp sgt i32 %25, 0
  br i1 %26, label %27, label %76

27:                                               ; preds = %17
  %28 = load ptr, ptr %8, align 8, !tbaa !20
  %29 = getelementptr inbounds i32, ptr %28, i64 2
  store i32 0, ptr %29, align 4, !tbaa !14
  %30 = load ptr, ptr %7, align 8, !tbaa !54
  %31 = call noundef i32 @_ZNK6icu_7713UnicodeString8char32AtEi(ptr noundef nonnull align 8 dereferenceable(64) %30, i32 noundef 0)
  %32 = icmp ule i32 %31, 65535
  %33 = select i1 %32, i32 1, i32 2
  store i32 %33, ptr %10, align 4, !tbaa !14
  %34 = load i32, ptr %11, align 4, !tbaa !14
  %35 = icmp sgt i32 %34, 1
  br i1 %35, label %36, label %75

36:                                               ; preds = %27
  %37 = load i32, ptr %10, align 4, !tbaa !14
  %38 = load ptr, ptr %8, align 8, !tbaa !20
  %39 = getelementptr inbounds i32, ptr %38, i64 3
  store i32 %37, ptr %39, align 4, !tbaa !14
  %40 = load ptr, ptr %7, align 8, !tbaa !54
  %41 = load i32, ptr %10, align 4, !tbaa !14
  %42 = call noundef i32 @_ZNK6icu_7713UnicodeString8char32AtEi(ptr noundef nonnull align 8 dereferenceable(64) %40, i32 noundef %41)
  %43 = icmp ule i32 %42, 65535
  %44 = select i1 %43, i32 1, i32 2
  %45 = load i32, ptr %10, align 4, !tbaa !14
  %46 = add nsw i32 %45, %44
  store i32 %46, ptr %10, align 4, !tbaa !14
  %47 = load i32, ptr %11, align 4, !tbaa !14
  %48 = icmp sgt i32 %47, 2
  br i1 %48, label %49, label %74

49:                                               ; preds = %36
  %50 = load i32, ptr %10, align 4, !tbaa !14
  %51 = load ptr, ptr %8, align 8, !tbaa !20
  %52 = getelementptr inbounds i32, ptr %51, i64 4
  store i32 %50, ptr %52, align 4, !tbaa !14
  %53 = load ptr, ptr %7, align 8, !tbaa !54
  %54 = load i32, ptr %10, align 4, !tbaa !14
  %55 = call noundef i32 @_ZNK6icu_7713UnicodeString8char32AtEi(ptr noundef nonnull align 8 dereferenceable(64) %53, i32 noundef %54)
  %56 = icmp ule i32 %55, 65535
  %57 = select i1 %56, i32 1, i32 2
  %58 = load i32, ptr %10, align 4, !tbaa !14
  %59 = add nsw i32 %58, %57
  store i32 %59, ptr %10, align 4, !tbaa !14
  %60 = load i32, ptr %11, align 4, !tbaa !14
  %61 = icmp sgt i32 %60, 3
  br i1 %61, label %62, label %73

62:                                               ; preds = %49
  %63 = load i32, ptr %10, align 4, !tbaa !14
  %64 = load ptr, ptr %8, align 8, !tbaa !20
  %65 = getelementptr inbounds i32, ptr %64, i64 5
  store i32 %63, ptr %65, align 4, !tbaa !14
  %66 = load ptr, ptr %7, align 8, !tbaa !54
  %67 = load i32, ptr %10, align 4, !tbaa !14
  %68 = call noundef i32 @_ZNK6icu_7713UnicodeString8char32AtEi(ptr noundef nonnull align 8 dereferenceable(64) %66, i32 noundef %67)
  %69 = icmp ule i32 %68, 65535
  %70 = select i1 %69, i32 1, i32 2
  %71 = load i32, ptr %10, align 4, !tbaa !14
  %72 = add nsw i32 %71, %70
  store i32 %72, ptr %10, align 4, !tbaa !14
  br label %73

73:                                               ; preds = %62, %49
  br label %74

74:                                               ; preds = %73, %36
  br label %75

75:                                               ; preds = %74, %27
  br label %76

76:                                               ; preds = %75, %17
  %77 = load i32, ptr %10, align 4, !tbaa !14
  store i32 %77, ptr %5, align 4
  call void @llvm.lifetime.end.p0(i64 4, ptr %11) #11
  call void @llvm.lifetime.end.p0(i64 4, ptr %10) #11
  br label %78

78:                                               ; preds = %76, %16
  %79 = load i32, ptr %5, align 4
  ret i32 %79
}