; Function Attrs: mustprogress uwtable
define noundef range(i32 0, 9) i32 @_ZNK6icu_7713MlBreakEngine13initIndexListERKNS_13UnicodeStringEPiR10UErrorCode(ptr nonnull readnone align 8 captures(none) %0, ptr noundef nonnull align 8 dereferenceable(64) %1, ptr noundef writeonly captures(none) %2, ptr noundef nonnull readonly align 4 captures(none) dereferenceable(4) %3) local_unnamed_addr #1 align 2 {
  %5 = load i32, ptr %3, align 4, !tbaa !13
  %6 = icmp slt i32 %5, 1
  br i1 %6, label %7, label %37

7:                                                ; preds = %4
  %8 = tail call noundef i32 @_ZNK6icu_7713UnicodeString11countChar32Eii(ptr noundef nonnull align 8 dereferenceable(64) %1, i32 noundef 0, i32 noundef 2147483647)
  %9 = add nsw i32 %8, 4
  %10 = sext i32 %9 to i64
  %11 = shl nsw i64 %10, 2
  tail call void @llvm.memset.p0.i64(ptr align 4 %2, i8 -1, i64 %11, i1 false)
  %12 = icmp sgt i32 %8, 0
  br i1 %12, label %13, label %37

13:                                               ; preds = %7
  %14 = getelementptr inbounds nuw i8, ptr %2, i64 8
  store i32 0, ptr %14, align 4, !tbaa !12
  %15 = tail call noundef i32 @_ZNK6icu_7713UnicodeString8char32AtEi(ptr noundef nonnull align 8 dereferenceable(64) %1, i32 noundef 0)
  %16 = icmp ult i32 %15, 65536
  %17 = select i1 %16, i32 1, i32 2
  %.not28 = icmp eq i32 %8, 1
  br i1 %.not28, label %37, label %18

18:                                               ; preds = %13
  %19 = getelementptr inbounds nuw i8, ptr %2, i64 12
  store i32 %17, ptr %19, align 4, !tbaa !12
  %20 = tail call noundef i32 @_ZNK6icu_7713UnicodeString8char32AtEi(ptr noundef nonnull align 8 dereferenceable(64) %1, i32 noundef %17)
  %21 = icmp ult i32 %20, 65536
  %22 = select i1 %21, i32 1, i32 2
  %23 = add nuw nsw i32 %22, %17
  %24 = icmp samesign ugt i32 %8, 2
  br i1 %24, label %25, label %37

25:                                               ; preds = %18
  %26 = getelementptr inbounds nuw i8, ptr %2, i64 16
  store i32 %23, ptr %26, align 4, !tbaa !12
  %27 = tail call noundef i32 @_ZNK6icu_7713UnicodeString8char32AtEi(ptr noundef nonnull align 8 dereferenceable(64) %1, i32 noundef %23)
  %28 = icmp ult i32 %27, 65536
  %29 = select i1 %28, i32 1, i32 2
  %30 = add nuw nsw i32 %29, %23
  %.not29 = icmp eq i32 %8, 3
  br i1 %.not29, label %37, label %31

31:                                               ; preds = %25
  %32 = getelementptr inbounds nuw i8, ptr %2, i64 20
  store i32 %30, ptr %32, align 4, !tbaa !12
  %33 = tail call noundef i32 @_ZNK6icu_7713UnicodeString8char32AtEi(ptr noundef nonnull align 8 dereferenceable(64) %1, i32 noundef %30)
  %34 = icmp ult i32 %33, 65536
  %35 = select i1 %34, i32 1, i32 2
  %36 = add nuw nsw i32 %35, %30
  br label %37

37:                                               ; preds = %7, %18, %31, %25, %13, %4
  %.0 = phi i32 [ 0, %4 ], [ %36, %31 ], [ %30, %25 ], [ %23, %18 ], [ %17, %13 ], [ 0, %7 ]
  ret i32 %.0
}